; Function Attrs: mustprogress nounwind uwtable
define void @_ZN13sentencepiece22SentencePieceProcessor13SetNormalizerEOSt10unique_ptrINS_10normalizer10NormalizerESt14default_deleteIS3_EE(ptr nocapture noundef nonnull align 8 dereferenceable(88) %0, ptr nocapture noundef nonnull align 8 dereferenceable(8) %1) local_unnamed_addr #5 align 2 personality ptr @__gxx_personality_v0 {
  %3 = getelementptr inbounds i8, ptr %0, i64 16
  %4 = load ptr, ptr %1, align 8
  store ptr null, ptr %1, align 8
  %5 = load ptr, ptr %3, align 8
  store ptr %4, ptr %3, align 8
  %.not.i.i.i.i = icmp eq ptr %5, null
  br i1 %.not.i.i.i.i, label %_ZNSt10unique_ptrIN13sentencepiece10normalizer10NormalizerESt14default_deleteIS2_EEaSEOS5_.exit, label %_ZNKSt14default_deleteIN13sentencepiece10normalizer10NormalizerEEclEPS2_.exit.i.i.i.i

_ZNKSt14default_deleteIN13sentencepiece10normalizer10NormalizerEEclEPS2_.exit.i.i.i.i: ; preds = %2
  %6 = load ptr, ptr %5, align 8
  %7 = getelementptr inbounds i8, ptr %6, i64 8
  %8 = load ptr, ptr %7, align 8
  tail call void %8(ptr noundef nonnull align 8 dereferenceable(56) %5) #24
  br label %_ZNSt10unique_ptrIN13sentencepiece10normalizer10NormalizerESt14default_deleteIS2_EEaSEOS5_.exit

_ZNSt10unique_ptrIN13sentencepiece10normalizer10NormalizerESt14default_deleteIS2_EEaSEOS5_.exit: ; preds = %2, %_ZNKSt14default_deleteIN13sentencepiece10normalizer10NormalizerEEclEPS2_.exit.i.i.i.i
  ret void
}